; Function Attrs: nofree nosync nounwind memory(read, inaccessiblemem: none) uwtable
define i32 @phpdbg_is_numeric(ptr noundef readonly %0) local_unnamed_addr #0 {
  %.not = icmp eq ptr %0, null
  br i1 %.not, label %.loopexit, label %.preheader

.preheader:                                       ; preds = %1
  %2 = load i8, ptr %0, align 1
  %.not911 = icmp eq i8 %2, 0
  br i1 %.not911, label %.loopexit, label %.lr.ph

.lr.ph:                                           ; preds = %.preheader
  %3 = tail call ptr @__ctype_b_loc() #23
  %4 = load ptr, ptr %3, align 8
  br label %8

5:                                                ; preds = %8
  %6 = getelementptr inbounds i8, ptr %.012, i64 1
  %7 = load i8, ptr %6, align 1
  %.not9 = icmp eq i8 %7, 0
  br i1 %.not9, label %.loopexit, label %8

8:                                                ; preds = %.lr.ph, %5
  %9 = phi i8 [ %2, %.lr.ph ], [ %7, %5 ]
  %.012 = phi ptr [ %0, %.lr.ph ], [ %6, %5 ]
  %10 = sext i8 %9 to i64
  %11 = getelementptr inbounds i16, ptr %4, i64 %10
  %12 = load i16, ptr %11, align 2
  %13 = zext i16 %12 to i32
  %14 = and i32 %13, 8192
  %.not10 = icmp ne i32 %14, 0
  %15 = icmp eq i8 %9, 45
  %or.cond = or i1 %15, %.not10
  br i1 %or.cond, label %5, label %16

16:                                               ; preds = %8
  %17 = and i32 %13, 2048
  br label %.loopexit

.loopexit:                                        ; preds = %5, %.preheader, %1, %16
  %.06 = phi i32 [ %17, %16 ], [ 0, %1 ], [ 0, %.preheader ], [ 0, %5 ]
  ret i32 %.06
}